target datalayout = "e-m:e-p270:32:32-p271:32:32-p272:64:64-i64:64-i128:128-f80:128-n8:16:32:64-S128"
target triple = "x86_64-pc-linux-gnu"

@envtbl = internal global i64 0, align 8

; Function Attrs: nounwind sspstrong uwtable
define internal i64 @env_keep_if(i64 noundef %0) #0 {
  %2 = alloca i64, align 8
  %3 = alloca i64, align 8
  %4 = alloca i64, align 8
  store i64 %0, ptr %3, align 8, !tbaa !7
  br label %5

5:                                                ; preds = %1
  %6 = call i32 @rb_block_given_p()
  %7 = icmp ne i32 %6, 0
  br i1 %7, label %14, label %8

8:                                                ; preds = %5
  %9 = load i64, ptr %3, align 8, !tbaa !7
  %10 = call i64 @rb_frame_this_func()
  %11 = call i64 @rb_id2sym(i64 noundef %10)
  store i64 %11, ptr %4, align 8, !tbaa !7
  %12 = load i64, ptr %4, align 8, !tbaa !7
  %13 = call i64 @rb_enumeratorize_with_size(i64 noundef %9, i64 noundef %12, i32 noundef 0, ptr noundef null, ptr noundef @rb_env_size)
  store i64 %13, ptr %2, align 8
  br label %19

14:                                               ; preds = %5
  br label %15

15:                                               ; preds = %14
  %16 = load i64, ptr %3, align 8, !tbaa !7
  %17 = call i64 @env_select_bang(i64 noundef %16)
  %18 = load i64, ptr @envtbl, align 8, !tbaa !7
  store i64 %18, ptr %2, align 8
  br label %19

19:                                               ; preds = %15, %8
  %20 = load i64, ptr %2, align 8
  ret i64 %20
}